target datalayout = "e-m:e-p270:32:32-p271:32:32-p272:64:64-i64:64-i128:128-f80:128-n8:16:32:64-S128"
target triple = "x86_64-pc-linux-gnu"

%struct.malloc_chunk = type { i64, i64, ptr, ptr }
%struct.malloc_state = type { i32, i32, i64, i64, ptr, ptr, i64, i64, [66 x ptr], [32 x ptr], %struct.malloc_segment, ptr }
%struct.malloc_segment = type { ptr, i64, ptr }

; Function Attrs: nounwind uwtable
define internal ptr @CALL_MREMAP_(ptr noundef %0, i64 noundef %1, i64 noundef %2, i32 noundef %3) #0 {
  %5 = alloca ptr, align 8
  %6 = alloca i64, align 8
  %7 = alloca i64, align 8
  %8 = alloca i32, align 4
  %9 = alloca i32, align 4
  store ptr %0, ptr %5, align 8, !tbaa !27
  store i64 %1, ptr %6, align 8, !tbaa !9
  store i64 %2, ptr %7, align 8, !tbaa !9
  store i32 %3, ptr %8, align 4, !tbaa !26
  call void @llvm.lifetime.start.p0(i64 4, ptr %9) #10
  %10 = call ptr @__errno_location() #11
  %11 = load i32, ptr %10, align 4, !tbaa !26
  store i32 %11, ptr %9, align 4, !tbaa !26
  %12 = load ptr, ptr %5, align 8, !tbaa !27
  %13 = load i64, ptr %6, align 8, !tbaa !9
  %14 = load i64, ptr %7, align 8, !tbaa !9
  %15 = load i32, ptr %8, align 4, !tbaa !26
  %16 = call ptr (ptr, i64, i64, i32, ...) @mremap(ptr noundef %12, i64 noundef %13, i64 noundef %14, i32 noundef %15) #10
  store ptr %16, ptr %5, align 8, !tbaa !27
  %17 = load i32, ptr %9, align 4, !tbaa !26
  %18 = call ptr @__errno_location() #11
  store i32 %17, ptr %18, align 4, !tbaa !26
  %19 = load ptr, ptr %5, align 8, !tbaa !27
  call void @llvm.lifetime.end.p0(i64 4, ptr %9) #10
  ret ptr %19
}

; Function Attrs: nounwind uwtable
define internal ptr @direct_resize(ptr noundef %0, i64 noundef %1) #0 {
  %3 = alloca ptr, align 8
  %4 = alloca ptr, align 8
  %5 = alloca i64, align 8
  %6 = alloca i64, align 8
  %7 = alloca i32, align 4
  %8 = alloca i64, align 8
  %9 = alloca i64, align 8
  %10 = alloca i64, align 8
  %11 = alloca ptr, align 8
  %12 = alloca ptr, align 8
  %13 = alloca i64, align 8
  store ptr %0, ptr %4, align 8, !tbaa !13
  store i64 %1, ptr %5, align 8, !tbaa !9
  call void @llvm.lifetime.start.p0(i64 8, ptr %6) #10
  %14 = load ptr, ptr %4, align 8, !tbaa !13
  %15 = getelementptr inbounds nuw %struct.malloc_chunk, ptr %14, i32 0, i32 1
  %16 = load i64, ptr %15, align 8, !tbaa !17
  %17 = and i64 %16, -4
  store i64 %17, ptr %6, align 8, !tbaa !9
  %18 = load i64, ptr %5, align 8, !tbaa !9
  %19 = lshr i64 %18, 3
  %20 = icmp ult i64 %19, 32
  br i1 %20, label %21, label %22

21:                                               ; preds = %2
  store ptr null, ptr %3, align 8
  store i32 1, ptr %7, align 4
  br label %84

22:                                               ; preds = %2
  %23 = load i64, ptr %6, align 8, !tbaa !9
  %24 = load i64, ptr %5, align 8, !tbaa !9
  %25 = add i64 %24, 8
  %26 = icmp uge i64 %23, %25
  br i1 %26, label %27, label %34

27:                                               ; preds = %22
  %28 = load i64, ptr %6, align 8, !tbaa !9
  %29 = load i64, ptr %5, align 8, !tbaa !9
  %30 = sub i64 %28, %29
  %31 = icmp ule i64 %30, 65536
  br i1 %31, label %32, label %34

32:                                               ; preds = %27
  %33 = load ptr, ptr %4, align 8, !tbaa !13
  store ptr %33, ptr %3, align 8
  store i32 1, ptr %7, align 4
  br label %84

34:                                               ; preds = %27, %22
  call void @llvm.lifetime.start.p0(i64 8, ptr %8) #10
  %35 = load ptr, ptr %4, align 8, !tbaa !13
  %36 = getelementptr inbounds nuw %struct.malloc_chunk, ptr %35, i32 0, i32 0
  %37 = load i64, ptr %36, align 8, !tbaa !43
  %38 = and i64 %37, -2
  store i64 %38, ptr %8, align 8, !tbaa !9
  call void @llvm.lifetime.start.p0(i64 8, ptr %9) #10
  %39 = load i64, ptr %6, align 8, !tbaa !9
  %40 = load i64, ptr %8, align 8, !tbaa !9
  %41 = add i64 %39, %40
  %42 = add i64 %41, 32
  store i64 %42, ptr %9, align 8, !tbaa !9
  call void @llvm.lifetime.start.p0(i64 8, ptr %10) #10
  %43 = load i64, ptr %5, align 8, !tbaa !9
  %44 = add i64 %43, 48
  %45 = add i64 %44, 7
  %46 = add i64 %45, 4095
  %47 = and i64 %46, -4096
  store i64 %47, ptr %10, align 8, !tbaa !9
  call void @llvm.lifetime.start.p0(i64 8, ptr %11) #10
  %48 = load ptr, ptr %4, align 8, !tbaa !13
  %49 = load i64, ptr %8, align 8, !tbaa !9
  %50 = sub i64 0, %49
  %51 = getelementptr inbounds i8, ptr %48, i64 %50
  %52 = load i64, ptr %9, align 8, !tbaa !9
  %53 = load i64, ptr %10, align 8, !tbaa !9
  %54 = call ptr @CALL_MREMAP_(ptr noundef %51, i64 noundef %52, i64 noundef %53, i32 noundef 1)
  store ptr %54, ptr %11, align 8, !tbaa !11
  %55 = load ptr, ptr %11, align 8, !tbaa !11
  %56 = icmp ne ptr %55, inttoptr (i64 -1 to ptr)
  br i1 %56, label %57, label %79

57:                                               ; preds = %34
  call void @llvm.lifetime.start.p0(i64 8, ptr %12) #10
  %58 = load ptr, ptr %11, align 8, !tbaa !11
  %59 = load i64, ptr %8, align 8, !tbaa !9
  %60 = getelementptr inbounds nuw i8, ptr %58, i64 %59
  store ptr %60, ptr %12, align 8, !tbaa !13
  call void @llvm.lifetime.start.p0(i64 8, ptr %13) #10
  %61 = load i64, ptr %10, align 8, !tbaa !9
  %62 = load i64, ptr %8, align 8, !tbaa !9
  %63 = sub i64 %61, %62
  %64 = sub i64 %63, 32
  store i64 %64, ptr %13, align 8, !tbaa !9
  %65 = load i64, ptr %13, align 8, !tbaa !9
  %66 = or i64 %65, 2
  %67 = load ptr, ptr %12, align 8, !tbaa !13
  %68 = getelementptr inbounds nuw %struct.malloc_chunk, ptr %67, i32 0, i32 1
  store i64 %66, ptr %68, align 8, !tbaa !17
  %69 = load ptr, ptr %12, align 8, !tbaa !13
  %70 = load i64, ptr %13, align 8, !tbaa !9
  %71 = getelementptr inbounds nuw i8, ptr %69, i64 %70
  %72 = getelementptr inbounds nuw %struct.malloc_chunk, ptr %71, i32 0, i32 1
  store i64 11, ptr %72, align 8, !tbaa !17
  %73 = load ptr, ptr %12, align 8, !tbaa !13
  %74 = load i64, ptr %13, align 8, !tbaa !9
  %75 = add i64 %74, 8
  %76 = getelementptr inbounds nuw i8, ptr %73, i64 %75
  %77 = getelementptr inbounds nuw %struct.malloc_chunk, ptr %76, i32 0, i32 1
  store i64 0, ptr %77, align 8, !tbaa !17
  %78 = load ptr, ptr %12, align 8, !tbaa !13
  store ptr %78, ptr %3, align 8
  store i32 1, ptr %7, align 4
  call void @llvm.lifetime.end.p0(i64 8, ptr %13) #10
  call void @llvm.lifetime.end.p0(i64 8, ptr %12) #10
  br label %80

79:                                               ; preds = %34
  store i32 0, ptr %7, align 4
  br label %80

80:                                               ; preds = %79, %57
  call void @llvm.lifetime.end.p0(i64 8, ptr %11) #10
  call void @llvm.lifetime.end.p0(i64 8, ptr %10) #10
  call void @llvm.lifetime.end.p0(i64 8, ptr %9) #10
  call void @llvm.lifetime.end.p0(i64 8, ptr %8) #10
  %81 = load i32, ptr %7, align 4
  switch i32 %81, label %84 [
    i32 0, label %82
  ]

82:                                               ; preds = %80
  br label %83

83:                                               ; preds = %82
  store ptr null, ptr %3, align 8
  store i32 1, ptr %7, align 4
  br label %84

84:                                               ; preds = %83, %80, %32, %21
  call void @llvm.lifetime.end.p0(i64 8, ptr %6) #10
  %85 = load ptr, ptr %3, align 8
  ret ptr %85
}

; Function Attrs: noinline nounwind uwtable
define internal ptr @lj_alloc_realloc(ptr noundef %0, ptr noundef %1, i64 noundef %2) #3 {
  %4 = alloca ptr, align 8
  %5 = alloca ptr, align 8
  %6 = alloca ptr, align 8
  %7 = alloca i64, align 8
  %8 = alloca ptr, align 8
  %9 = alloca ptr, align 8
  %10 = alloca i64, align 8
  %11 = alloca ptr, align 8
  %12 = alloca ptr, align 8
  %13 = alloca i64, align 8
  %14 = alloca i64, align 8
  %15 = alloca ptr, align 8
  %16 = alloca i64, align 8
  %17 = alloca i64, align 8
  %18 = alloca ptr, align 8
  %19 = alloca i32, align 4
  %20 = alloca ptr, align 8
  %21 = alloca i64, align 8
  store ptr %0, ptr %5, align 8, !tbaa !27
  store ptr %1, ptr %6, align 8, !tbaa !27
  store i64 %2, ptr %7, align 8, !tbaa !9
  %22 = load i64, ptr %7, align 8, !tbaa !9
  %23 = icmp uge i64 %22, -128
  br i1 %23, label %24, label %25

24:                                               ; preds = %3
  store ptr null, ptr %4, align 8
  br label %211

25:                                               ; preds = %3
  call void @llvm.lifetime.start.p0(i64 8, ptr %8) #10
  %26 = load ptr, ptr %5, align 8, !tbaa !27
  store ptr %26, ptr %8, align 8, !tbaa !15
  call void @llvm.lifetime.start.p0(i64 8, ptr %9) #10
  %27 = load ptr, ptr %6, align 8, !tbaa !27
  %28 = getelementptr inbounds i8, ptr %27, i64 -16
  store ptr %28, ptr %9, align 8, !tbaa !13
  call void @llvm.lifetime.start.p0(i64 8, ptr %10) #10
  %29 = load ptr, ptr %9, align 8, !tbaa !13
  %30 = getelementptr inbounds nuw %struct.malloc_chunk, ptr %29, i32 0, i32 1
  %31 = load i64, ptr %30, align 8, !tbaa !17
  %32 = and i64 %31, -4
  store i64 %32, ptr %10, align 8, !tbaa !9
  call void @llvm.lifetime.start.p0(i64 8, ptr %11) #10
  %33 = load ptr, ptr %9, align 8, !tbaa !13
  %34 = load i64, ptr %10, align 8, !tbaa !9
  %35 = getelementptr inbounds nuw i8, ptr %33, i64 %34
  store ptr %35, ptr %11, align 8, !tbaa !13
  call void @llvm.lifetime.start.p0(i64 8, ptr %12) #10
  store ptr null, ptr %12, align 8, !tbaa !13
  call void @llvm.lifetime.start.p0(i64 8, ptr %13) #10
  %36 = load i64, ptr %7, align 8, !tbaa !9
  %37 = icmp ult i64 %36, 23
  br i1 %37, label %38, label %39

38:                                               ; preds = %25
  br label %44

39:                                               ; preds = %25
  %40 = load i64, ptr %7, align 8, !tbaa !9
  %41 = add i64 %40, 8
  %42 = add i64 %41, 7
  %43 = and i64 %42, -8
  br label %44

44:                                               ; preds = %39, %38
  %45 = phi i64 [ 32, %38 ], [ %43, %39 ]
  store i64 %45, ptr %13, align 8, !tbaa !9
  %46 = load ptr, ptr %9, align 8, !tbaa !13
  %47 = getelementptr inbounds nuw %struct.malloc_chunk, ptr %46, i32 0, i32 1
  %48 = load i64, ptr %47, align 8, !tbaa !17
  %49 = and i64 %48, 1
  %50 = icmp ne i64 %49, 0
  br i1 %50, label %61, label %51

51:                                               ; preds = %44
  %52 = load ptr, ptr %9, align 8, !tbaa !13
  %53 = getelementptr inbounds nuw %struct.malloc_chunk, ptr %52, i32 0, i32 0
  %54 = load i64, ptr %53, align 8, !tbaa !43
  %55 = and i64 %54, 1
  %56 = icmp ne i64 %55, 0
  br i1 %56, label %57, label %61

57:                                               ; preds = %51
  %58 = load ptr, ptr %9, align 8, !tbaa !13
  %59 = load i64, ptr %13, align 8, !tbaa !9
  %60 = call ptr @direct_resize(ptr noundef %58, i64 noundef %59)
  store ptr %60, ptr %12, align 8, !tbaa !13
  br label %165

61:                                               ; preds = %51, %44
  %62 = load i64, ptr %10, align 8, !tbaa !9
  %63 = load i64, ptr %13, align 8, !tbaa !9
  %64 = icmp uge i64 %62, %63
  br i1 %64, label %65, label %111

65:                                               ; preds = %61
  call void @llvm.lifetime.start.p0(i64 8, ptr %14) #10
  %66 = load i64, ptr %10, align 8, !tbaa !9
  %67 = load i64, ptr %13, align 8, !tbaa !9
  %68 = sub i64 %66, %67
  store i64 %68, ptr %14, align 8, !tbaa !9
  %69 = load ptr, ptr %9, align 8, !tbaa !13
  store ptr %69, ptr %12, align 8, !tbaa !13
  %70 = load i64, ptr %14, align 8, !tbaa !9
  %71 = icmp uge i64 %70, 32
  br i1 %71, label %72, label %110

72:                                               ; preds = %65
  call void @llvm.lifetime.start.p0(i64 8, ptr %15) #10
  %73 = load ptr, ptr %12, align 8, !tbaa !13
  %74 = load i64, ptr %13, align 8, !tbaa !9
  %75 = getelementptr inbounds nuw i8, ptr %73, i64 %74
  store ptr %75, ptr %15, align 8, !tbaa !13
  %76 = load ptr, ptr %12, align 8, !tbaa !13
  %77 = getelementptr inbounds nuw %struct.malloc_chunk, ptr %76, i32 0, i32 1
  %78 = load i64, ptr %77, align 8, !tbaa !17
  %79 = and i64 %78, 1
  %80 = load i64, ptr %13, align 8, !tbaa !9
  %81 = or i64 %79, %80
  %82 = or i64 %81, 2
  %83 = load ptr, ptr %12, align 8, !tbaa !13
  %84 = getelementptr inbounds nuw %struct.malloc_chunk, ptr %83, i32 0, i32 1
  store i64 %82, ptr %84, align 8, !tbaa !17
  %85 = load ptr, ptr %12, align 8, !tbaa !13
  %86 = load i64, ptr %13, align 8, !tbaa !9
  %87 = getelementptr inbounds nuw i8, ptr %85, i64 %86
  %88 = getelementptr inbounds nuw %struct.malloc_chunk, ptr %87, i32 0, i32 1
  %89 = load i64, ptr %88, align 8, !tbaa !17
  %90 = or i64 %89, 1
  store i64 %90, ptr %88, align 8, !tbaa !17
  %91 = load ptr, ptr %15, align 8, !tbaa !13
  %92 = getelementptr inbounds nuw %struct.malloc_chunk, ptr %91, i32 0, i32 1
  %93 = load i64, ptr %92, align 8, !tbaa !17
  %94 = and i64 %93, 1
  %95 = load i64, ptr %14, align 8, !tbaa !9
  %96 = or i64 %94, %95
  %97 = or i64 %96, 2
  %98 = load ptr, ptr %15, align 8, !tbaa !13
  %99 = getelementptr inbounds nuw %struct.malloc_chunk, ptr %98, i32 0, i32 1
  store i64 %97, ptr %99, align 8, !tbaa !17
  %100 = load ptr, ptr %15, align 8, !tbaa !13
  %101 = load i64, ptr %14, align 8, !tbaa !9
  %102 = getelementptr inbounds nuw i8, ptr %100, i64 %101
  %103 = getelementptr inbounds nuw %struct.malloc_chunk, ptr %102, i32 0, i32 1
  %104 = load i64, ptr %103, align 8, !tbaa !17
  %105 = or i64 %104, 1
  store i64 %105, ptr %103, align 8, !tbaa !17
  %106 = load ptr, ptr %8, align 8, !tbaa !15
  %107 = load ptr, ptr %15, align 8, !tbaa !13
  %108 = getelementptr inbounds nuw i8, ptr %107, i64 16
  %109 = call ptr @lj_alloc_free(ptr noundef %106, ptr noundef %108)
  call void @llvm.lifetime.end.p0(i64 8, ptr %15) #10
  br label %110

110:                                              ; preds = %72, %65
  call void @llvm.lifetime.end.p0(i64 8, ptr %14) #10
  br label %164

111:                                              ; preds = %61
  %112 = load ptr, ptr %11, align 8, !tbaa !13
  %113 = load ptr, ptr %8, align 8, !tbaa !15
  %114 = getelementptr inbounds nuw %struct.malloc_state, ptr %113, i32 0, i32 5
  %115 = load ptr, ptr %114, align 8, !tbaa !34
  %116 = icmp eq ptr %112, %115
  br i1 %116, label %117, label %163

117:                                              ; preds = %111
  %118 = load i64, ptr %10, align 8, !tbaa !9
  %119 = load ptr, ptr %8, align 8, !tbaa !15
  %120 = getelementptr inbounds nuw %struct.malloc_state, ptr %119, i32 0, i32 3
  %121 = load i64, ptr %120, align 8, !tbaa !35
  %122 = add i64 %118, %121
  %123 = load i64, ptr %13, align 8, !tbaa !9
  %124 = icmp ugt i64 %122, %123
  br i1 %124, label %125, label %163

125:                                              ; preds = %117
  call void @llvm.lifetime.start.p0(i64 8, ptr %16) #10
  %126 = load i64, ptr %10, align 8, !tbaa !9
  %127 = load ptr, ptr %8, align 8, !tbaa !15
  %128 = getelementptr inbounds nuw %struct.malloc_state, ptr %127, i32 0, i32 3
  %129 = load i64, ptr %128, align 8, !tbaa !35
  %130 = add i64 %126, %129
  store i64 %130, ptr %16, align 8, !tbaa !9
  call void @llvm.lifetime.start.p0(i64 8, ptr %17) #10
  %131 = load i64, ptr %16, align 8, !tbaa !9
  %132 = load i64, ptr %13, align 8, !tbaa !9
  %133 = sub i64 %131, %132
  store i64 %133, ptr %17, align 8, !tbaa !9
  call void @llvm.lifetime.start.p0(i64 8, ptr %18) #10
  %134 = load ptr, ptr %9, align 8, !tbaa !13
  %135 = load i64, ptr %13, align 8, !tbaa !9
  %136 = getelementptr inbounds nuw i8, ptr %134, i64 %135
  store ptr %136, ptr %18, align 8, !tbaa !13
  %137 = load ptr, ptr %9, align 8, !tbaa !13
  %138 = getelementptr inbounds nuw %struct.malloc_chunk, ptr %137, i32 0, i32 1
  %139 = load i64, ptr %138, align 8, !tbaa !17
  %140 = and i64 %139, 1
  %141 = load i64, ptr %13, align 8, !tbaa !9
  %142 = or i64 %140, %141
  %143 = or i64 %142, 2
  %144 = load ptr, ptr %9, align 8, !tbaa !13
  %145 = getelementptr inbounds nuw %struct.malloc_chunk, ptr %144, i32 0, i32 1
  store i64 %143, ptr %145, align 8, !tbaa !17
  %146 = load ptr, ptr %9, align 8, !tbaa !13
  %147 = load i64, ptr %13, align 8, !tbaa !9
  %148 = getelementptr inbounds nuw i8, ptr %146, i64 %147
  %149 = getelementptr inbounds nuw %struct.malloc_chunk, ptr %148, i32 0, i32 1
  %150 = load i64, ptr %149, align 8, !tbaa !17
  %151 = or i64 %150, 1
  store i64 %151, ptr %149, align 8, !tbaa !17
  %152 = load i64, ptr %17, align 8, !tbaa !9
  %153 = or i64 %152, 1
  %154 = load ptr, ptr %18, align 8, !tbaa !13
  %155 = getelementptr inbounds nuw %struct.malloc_chunk, ptr %154, i32 0, i32 1
  store i64 %153, ptr %155, align 8, !tbaa !17
  %156 = load ptr, ptr %18, align 8, !tbaa !13
  %157 = load ptr, ptr %8, align 8, !tbaa !15
  %158 = getelementptr inbounds nuw %struct.malloc_state, ptr %157, i32 0, i32 5
  store ptr %156, ptr %158, align 8, !tbaa !34
  %159 = load i64, ptr %17, align 8, !tbaa !9
  %160 = load ptr, ptr %8, align 8, !tbaa !15
  %161 = getelementptr inbounds nuw %struct.malloc_state, ptr %160, i32 0, i32 3
  store i64 %159, ptr %161, align 8, !tbaa !35
  %162 = load ptr, ptr %9, align 8, !tbaa !13
  store ptr %162, ptr %12, align 8, !tbaa !13
  call void @llvm.lifetime.end.p0(i64 8, ptr %18) #10
  call void @llvm.lifetime.end.p0(i64 8, ptr %17) #10
  call void @llvm.lifetime.end.p0(i64 8, ptr %16) #10
  br label %163

163:                                              ; preds = %125, %117, %111
  br label %164

164:                                              ; preds = %163, %110
  br label %165

165:                                              ; preds = %164, %57
  %166 = load ptr, ptr %12, align 8, !tbaa !13
  %167 = icmp ne ptr %166, null
  br i1 %167, label %168, label %171

168:                                              ; preds = %165
  %169 = load ptr, ptr %12, align 8, !tbaa !13
  %170 = getelementptr inbounds nuw i8, ptr %169, i64 16
  store ptr %170, ptr %4, align 8
  store i32 1, ptr %19, align 4
  br label %210

171:                                              ; preds = %165
  call void @llvm.lifetime.start.p0(i64 8, ptr %20) #10
  %172 = load ptr, ptr %8, align 8, !tbaa !15
  %173 = load i64, ptr %7, align 8, !tbaa !9
  %174 = call ptr @lj_alloc_malloc(ptr noundef %172, i64 noundef %173)
  store ptr %174, ptr %20, align 8, !tbaa !27
  %175 = load ptr, ptr %20, align 8, !tbaa !27
  %176 = icmp ne ptr %175, null
  br i1 %176, label %177, label %208

177:                                              ; preds = %171
  call void @llvm.lifetime.start.p0(i64 8, ptr %21) #10
  %178 = load i64, ptr %10, align 8, !tbaa !9
  %179 = load ptr, ptr %9, align 8, !tbaa !13
  %180 = getelementptr inbounds nuw %struct.malloc_chunk, ptr %179, i32 0, i32 1
  %181 = load i64, ptr %180, align 8, !tbaa !17
  %182 = and i64 %181, 1
  %183 = icmp ne i64 %182, 0
  br i1 %183, label %190, label %184

184:                                              ; preds = %177
  %185 = load ptr, ptr %9, align 8, !tbaa !13
  %186 = getelementptr inbounds nuw %struct.malloc_chunk, ptr %185, i32 0, i32 0
  %187 = load i64, ptr %186, align 8, !tbaa !43
  %188 = and i64 %187, 1
  %189 = icmp ne i64 %188, 0
  br label %190

190:                                              ; preds = %184, %177
  %191 = phi i1 [ false, %177 ], [ %189, %184 ]
  %192 = select i1 %191, i64 16, i64 8
  %193 = sub i64 %178, %192
  store i64 %193, ptr %21, align 8, !tbaa !9
  %194 = load ptr, ptr %20, align 8, !tbaa !27
  %195 = load ptr, ptr %6, align 8, !tbaa !27
  %196 = load i64, ptr %21, align 8, !tbaa !9
  %197 = load i64, ptr %7, align 8, !tbaa !9
  %198 = icmp ult i64 %196, %197
  br i1 %198, label %199, label %201

199:                                              ; preds = %190
  %200 = load i64, ptr %21, align 8, !tbaa !9
  br label %203

201:                                              ; preds = %190
  %202 = load i64, ptr %7, align 8, !tbaa !9
  br label %203

203:                                              ; preds = %201, %199
  %204 = phi i64 [ %200, %199 ], [ %202, %201 ]
  call void @llvm.memcpy.p0.p0.i64(ptr align 1 %194, ptr align 1 %195, i64 %204, i1 false)
  %205 = load ptr, ptr %8, align 8, !tbaa !15
  %206 = load ptr, ptr %6, align 8, !tbaa !27
  %207 = call ptr @lj_alloc_free(ptr noundef %205, ptr noundef %206)
  call void @llvm.lifetime.end.p0(i64 8, ptr %21) #10
  br label %208

208:                                              ; preds = %203, %171
  %209 = load ptr, ptr %20, align 8, !tbaa !27
  store ptr %209, ptr %4, align 8
  store i32 1, ptr %19, align 4
  call void @llvm.lifetime.end.p0(i64 8, ptr %20) #10
  br label %210

210:                                              ; preds = %208, %168
  call void @llvm.lifetime.end.p0(i64 8, ptr %13) #10
  call void @llvm.lifetime.end.p0(i64 8, ptr %12) #10
  call void @llvm.lifetime.end.p0(i64 8, ptr %11) #10
  call void @llvm.lifetime.end.p0(i64 8, ptr %10) #10
  call void @llvm.lifetime.end.p0(i64 8, ptr %9) #10
  call void @llvm.lifetime.end.p0(i64 8, ptr %8) #10
  br label %211

211:                                              ; preds = %210, %24
  %212 = load ptr, ptr %4, align 8
  ret ptr %212
}