; Function Attrs: noinline nounwind uwtable
define internal fastcc ptr @lj_alloc_realloc(ptr noundef %0, ptr noundef nonnull %1, i64 noundef range(i64 1, 0) %2) unnamed_addr #3 {
  %4 = icmp ugt i64 %2, -129
  br i1 %4, label %88, label %5

5:                                                ; preds = %3
  %6 = getelementptr inbounds i8, ptr %1, i64 -16
  %7 = getelementptr inbounds i8, ptr %1, i64 -8
  %8 = load i64, ptr %7, align 8, !tbaa !4
  %9 = and i64 %8, -4
  %10 = getelementptr inbounds nuw i8, ptr %6, i64 %9
  %11 = icmp ult i64 %2, 23
  %12 = add nuw i64 %2, 15
  %13 = and i64 %12, -8
  %14 = select i1 %11, i64 32, i64 %13
  %15 = and i64 %8, 1
  %.not = icmp eq i64 %15, 0
  br i1 %.not, label %16, label %46

16:                                               ; preds = %5
  %17 = load i64, ptr %6, align 8, !tbaa !36
  %18 = and i64 %17, 1
  %.not81 = icmp eq i64 %18, 0
  br i1 %.not81, label %46, label %19

19:                                               ; preds = %16
  %20 = icmp ult i64 %14, 256
  br i1 %20, label %direct_resize.exit, label %21

21:                                               ; preds = %19
  %22 = add nuw i64 %14, 8
  %.not.i = icmp uge i64 %9, %22
  %23 = sub nuw i64 %9, %14
  %24 = icmp ult i64 %23, 65537
  %or.cond.i = select i1 %.not.i, i1 %24, i1 false
  br i1 %or.cond.i, label %76, label %25

25:                                               ; preds = %21
  %26 = and i64 %17, -2
  %27 = add i64 %26, 32
  %28 = add i64 %27, %9
  %29 = add i64 %14, 4150
  %30 = and i64 %29, -4096
  %31 = sub i64 0, %26
  %32 = getelementptr inbounds i8, ptr %6, i64 %31
  %33 = tail call ptr @__errno_location() #10
  %34 = load i32, ptr %33, align 4, !tbaa !27
  %35 = tail call ptr (ptr, i64, i64, i32, ...) @mremap(ptr noundef nonnull %32, i64 noundef %28, i64 noundef %30, i32 noundef 1) #11
  store i32 %34, ptr %33, align 4, !tbaa !27
  %.not31.i = icmp eq ptr %35, inttoptr (i64 -1 to ptr)
  br i1 %.not31.i, label %direct_resize.exit, label %36

36:                                               ; preds = %25
  %37 = getelementptr inbounds nuw i8, ptr %35, i64 %26
  %38 = sub i64 %30, %26
  %39 = add i64 %38, -32
  %40 = or i64 %39, 2
  %41 = getelementptr inbounds nuw i8, ptr %37, i64 8
  store i64 %40, ptr %41, align 8, !tbaa !4
  %42 = getelementptr inbounds nuw i8, ptr %37, i64 %39
  %43 = getelementptr inbounds nuw i8, ptr %42, i64 8
  store i64 11, ptr %43, align 8, !tbaa !4
  %44 = getelementptr i8, ptr %35, i64 %30
  %45 = getelementptr i8, ptr %44, i64 -16
  store i64 0, ptr %45, align 8, !tbaa !4
  br label %76

46:                                               ; preds = %16, %5
  %.not82 = icmp ult i64 %9, %14
  br i1 %.not82, label %60, label %47

47:                                               ; preds = %46
  %48 = sub nuw i64 %9, %14
  %49 = icmp ugt i64 %48, 31
  br i1 %49, label %50, label %76

50:                                               ; preds = %47
  %51 = getelementptr inbounds nuw i8, ptr %6, i64 %14
  %52 = or disjoint i64 %14, %15
  %53 = or disjoint i64 %52, 2
  store i64 %53, ptr %7, align 8, !tbaa !4
  %54 = getelementptr inbounds nuw i8, ptr %51, i64 8
  %55 = or disjoint i64 %48, 3
  store i64 %55, ptr %54, align 8, !tbaa !4
  %56 = getelementptr inbounds nuw i8, ptr %10, i64 8
  %57 = load i64, ptr %56, align 8, !tbaa !4
  %58 = or i64 %57, 1
  store i64 %58, ptr %56, align 8, !tbaa !4
  %59 = getelementptr inbounds nuw i8, ptr %51, i64 16
  tail call fastcc void @lj_alloc_free(ptr noundef %0, ptr noundef nonnull %59)
  br label %76

60:                                               ; preds = %46
  %61 = getelementptr inbounds nuw i8, ptr %0, i64 32
  %62 = load ptr, ptr %61, align 8, !tbaa !24
  %63 = icmp eq ptr %10, %62
  br i1 %63, label %64, label %direct_resize.exit

64:                                               ; preds = %60
  %65 = getelementptr inbounds nuw i8, ptr %0, i64 16
  %66 = load i64, ptr %65, align 8, !tbaa !25
  %67 = add i64 %66, %9
  %68 = icmp ugt i64 %67, %14
  br i1 %68, label %69, label %direct_resize.exit

69:                                               ; preds = %64
  %70 = sub nuw i64 %67, %14
  %71 = getelementptr inbounds nuw i8, ptr %6, i64 %14
  %72 = or disjoint i64 %14, %15
  %73 = or disjoint i64 %72, 2
  store i64 %73, ptr %7, align 8, !tbaa !4
  %74 = getelementptr inbounds nuw i8, ptr %71, i64 8
  %75 = or i64 %70, 1
  store i64 %75, ptr %74, align 8, !tbaa !4
  store ptr %71, ptr %61, align 8, !tbaa !24
  store i64 %70, ptr %65, align 8, !tbaa !25
  br label %76

76:                                               ; preds = %69, %50, %47, %21, %36
  %.072.ph = phi ptr [ %37, %36 ], [ %6, %21 ], [ %6, %47 ], [ %6, %50 ], [ %6, %69 ]
  %77 = getelementptr inbounds nuw i8, ptr %.072.ph, i64 16
  br label %88

direct_resize.exit:                               ; preds = %60, %64, %19, %25
  %78 = tail call fastcc ptr @lj_alloc_malloc(ptr noundef %0, i64 noundef %2)
  %.not84 = icmp eq ptr %78, null
  br i1 %.not84, label %88, label %79

79:                                               ; preds = %direct_resize.exit
  %80 = load i64, ptr %7, align 8, !tbaa !4
  %81 = and i64 %80, 1
  %.not85 = icmp eq i64 %81, 0
  br i1 %.not85, label %82, label %85

82:                                               ; preds = %79
  %83 = load i64, ptr %6, align 8, !tbaa !36
  %84 = and i64 %83, 1
  %.not86 = icmp eq i64 %84, 0
  %.neg = select i1 %.not86, i64 -8, i64 -16
  br label %85

85:                                               ; preds = %82, %79
  %.neg87 = phi i64 [ -8, %79 ], [ %.neg, %82 ]
  %86 = add i64 %.neg87, %9
  %87 = tail call i64 @llvm.umin.i64(i64 %86, i64 %2)
  tail call void @llvm.memcpy.p0.p0.i64(ptr nonnull align 1 %78, ptr nonnull align 1 %1, i64 %87, i1 false)
  tail call fastcc void @lj_alloc_free(ptr noundef %0, ptr noundef nonnull %1)
  br label %88

88:                                               ; preds = %76, %85, %direct_resize.exit, %3
  %.0 = phi ptr [ null, %3 ], [ %77, %76 ], [ %78, %85 ], [ null, %direct_resize.exit ]
  ret ptr %.0
}